target datalayout = "e-m:e-p270:32:32-p271:32:32-p272:64:64-i64:64-i128:128-f80:128-n8:16:32:64-S128"
target triple = "x86_64-pc-linux-gnu"

%struct.UCharIterator = type { ptr, i32, i32, i32, i32, i32, ptr, ptr, ptr, ptr, ptr, ptr, ptr, ptr, ptr, ptr }

; Function Attrs: mustprogress uwtable
define i32 @uiter_current32_77(ptr noundef %0) #0 {
  %2 = alloca ptr, align 8
  %3 = alloca i32, align 4
  %4 = alloca i32, align 4
  store ptr %0, ptr %2, align 8, !tbaa !3
  call void @llvm.lifetime.start.p0(i64 4, ptr %3) #8
  call void @llvm.lifetime.start.p0(i64 4, ptr %4) #8
  %5 = load ptr, ptr %2, align 8, !tbaa !3
  %6 = getelementptr inbounds nuw %struct.UCharIterator, ptr %5, i32 0, i32 10
  %7 = load ptr, ptr %6, align 8, !tbaa !29
  %8 = load ptr, ptr %2, align 8, !tbaa !3
  %9 = call noundef i32 %7(ptr noundef %8)
  store i32 %9, ptr %3, align 4, !tbaa !10
  %10 = load i32, ptr %3, align 4, !tbaa !10
  %11 = and i32 %10, -2048
  %12 = icmp eq i32 %11, 55296
  br i1 %12, label %13, label %67

13:                                               ; preds = %1
  %14 = load i32, ptr %3, align 4, !tbaa !10
  %15 = and i32 %14, 1024
  %16 = icmp eq i32 %15, 0
  br i1 %16, label %17, label %42

17:                                               ; preds = %13
  %18 = load ptr, ptr %2, align 8, !tbaa !3
  %19 = getelementptr inbounds nuw %struct.UCharIterator, ptr %18, i32 0, i32 7
  %20 = load ptr, ptr %19, align 8, !tbaa !30
  %21 = load ptr, ptr %2, align 8, !tbaa !3
  %22 = call noundef i32 %20(ptr noundef %21, i32 noundef 1, i32 noundef 1)
  %23 = load ptr, ptr %2, align 8, !tbaa !3
  %24 = getelementptr inbounds nuw %struct.UCharIterator, ptr %23, i32 0, i32 10
  %25 = load ptr, ptr %24, align 8, !tbaa !29
  %26 = load ptr, ptr %2, align 8, !tbaa !3
  %27 = call noundef i32 %25(ptr noundef %26)
  store i32 %27, ptr %4, align 4, !tbaa !10
  %28 = and i32 %27, -1024
  %29 = icmp eq i32 %28, 56320
  br i1 %29, label %30, label %36

30:                                               ; preds = %17
  %31 = load i32, ptr %3, align 4, !tbaa !10
  %32 = shl i32 %31, 10
  %33 = load i32, ptr %4, align 4, !tbaa !10
  %34 = add nsw i32 %32, %33
  %35 = sub nsw i32 %34, 56613888
  store i32 %35, ptr %3, align 4, !tbaa !10
  br label %36

36:                                               ; preds = %30, %17
  %37 = load ptr, ptr %2, align 8, !tbaa !3
  %38 = getelementptr inbounds nuw %struct.UCharIterator, ptr %37, i32 0, i32 7
  %39 = load ptr, ptr %38, align 8, !tbaa !30
  %40 = load ptr, ptr %2, align 8, !tbaa !3
  %41 = call noundef i32 %39(ptr noundef %40, i32 noundef -1, i32 noundef 1)
  br label %66

42:                                               ; preds = %13
  %43 = load ptr, ptr %2, align 8, !tbaa !3
  %44 = getelementptr inbounds nuw %struct.UCharIterator, ptr %43, i32 0, i32 12
  %45 = load ptr, ptr %44, align 8, !tbaa !31
  %46 = load ptr, ptr %2, align 8, !tbaa !3
  %47 = call noundef i32 %45(ptr noundef %46)
  store i32 %47, ptr %4, align 4, !tbaa !10
  %48 = and i32 %47, -1024
  %49 = icmp eq i32 %48, 55296
  br i1 %49, label %50, label %56

50:                                               ; preds = %42
  %51 = load i32, ptr %4, align 4, !tbaa !10
  %52 = shl i32 %51, 10
  %53 = load i32, ptr %3, align 4, !tbaa !10
  %54 = add nsw i32 %52, %53
  %55 = sub nsw i32 %54, 56613888
  store i32 %55, ptr %3, align 4, !tbaa !10
  br label %56

56:                                               ; preds = %50, %42
  %57 = load i32, ptr %4, align 4, !tbaa !10
  %58 = icmp sge i32 %57, 0
  br i1 %58, label %59, label %65

59:                                               ; preds = %56
  %60 = load ptr, ptr %2, align 8, !tbaa !3
  %61 = getelementptr inbounds nuw %struct.UCharIterator, ptr %60, i32 0, i32 7
  %62 = load ptr, ptr %61, align 8, !tbaa !30
  %63 = load ptr, ptr %2, align 8, !tbaa !3
  %64 = call noundef i32 %62(ptr noundef %63, i32 noundef 1, i32 noundef 1)
  br label %65

65:                                               ; preds = %59, %56
  br label %66

66:                                               ; preds = %65, %36
  br label %67

67:                                               ; preds = %66, %1
  %68 = load i32, ptr %3, align 4, !tbaa !10
  call void @llvm.lifetime.end.p0(i64 4, ptr %4) #8
  call void @llvm.lifetime.end.p0(i64 4, ptr %3) #8
  ret i32 %68
}