; Function Attrs: mustprogress uwtable
define i32 @uiter_current32_77(ptr noundef %0) local_unnamed_addr #0 {
  %2 = getelementptr inbounds nuw i8, ptr %0, i64 64
  %3 = load ptr, ptr %2, align 8, !tbaa !19
  %4 = tail call noundef i32 %3(ptr noundef %0)
  %5 = and i32 %4, -2048
  %6 = icmp eq i32 %5, 55296
  br i1 %6, label %7, label %37

7:                                                ; preds = %1
  %8 = and i32 %4, 1024
  %9 = icmp eq i32 %8, 0
  br i1 %9, label %10, label %23

10:                                               ; preds = %7
  %11 = getelementptr inbounds nuw i8, ptr %0, i64 40
  %12 = load ptr, ptr %11, align 8, !tbaa !20
  %13 = tail call noundef i32 %12(ptr noundef nonnull %0, i32 noundef 1, i32 noundef 1)
  %14 = load ptr, ptr %2, align 8, !tbaa !19
  %15 = tail call noundef i32 %14(ptr noundef nonnull %0)
  %16 = and i32 %15, -1024
  %17 = icmp eq i32 %16, 56320
  %18 = shl nuw nsw i32 %4, 10
  %19 = add nsw i32 %18, -56613888
  %20 = add nuw nsw i32 %19, %15
  %.1 = select i1 %17, i32 %20, i32 %4
  %21 = load ptr, ptr %11, align 8, !tbaa !20
  %22 = tail call noundef i32 %21(ptr noundef nonnull %0, i32 noundef -1, i32 noundef 1)
  br label %37

23:                                               ; preds = %7
  %24 = getelementptr inbounds nuw i8, ptr %0, i64 80
  %25 = load ptr, ptr %24, align 8, !tbaa !21
  %26 = tail call noundef i32 %25(ptr noundef nonnull %0)
  %27 = and i32 %26, -1024
  %28 = icmp eq i32 %27, 55296
  %29 = shl nuw nsw i32 %26, 10
  %30 = add nuw nsw i32 %4, -56613888
  %31 = add nsw i32 %30, %29
  %.2 = select i1 %28, i32 %31, i32 %4
  %32 = icmp sgt i32 %26, -1
  br i1 %32, label %33, label %37

33:                                               ; preds = %23
  %34 = getelementptr inbounds nuw i8, ptr %0, i64 40
  %35 = load ptr, ptr %34, align 8, !tbaa !20
  %36 = tail call noundef i32 %35(ptr noundef nonnull %0, i32 noundef 1, i32 noundef 1)
  br label %37

37:                                               ; preds = %10, %33, %23, %1
  %.0 = phi i32 [ %.1, %10 ], [ %.2, %33 ], [ %.2, %23 ], [ %4, %1 ]
  ret i32 %.0
}